target datalayout = "e-m:e-p270:32:32-p271:32:32-p272:64:64-i64:64-i128:128-f80:128-n8:16:32:64-S128"
target triple = "x86_64-unknown-linux-gnu"

%struct.MemoryRegionOps = type { ptr, ptr, ptr, ptr, i32, %struct.anon.11, %struct.anon.12 }
%struct.anon.11 = type { i32, i32, i8, ptr }
%struct.anon.12 = type { i32, i32, i8 }
%struct.RISCVAclintMTimerState = type { %struct.SysBusDevice, i64, ptr, ptr, %struct.MemoryRegion, i32, i32, i32, i32, i32, i32, ptr }
%struct.SysBusDevice = type { %struct.DeviceState, i32, [32 x %struct.anon], i32, [32 x i32] }
%struct.DeviceState = type { %struct.Object, ptr, ptr, i8, i8, i64, ptr, i32, i8, ptr, %struct.NamedGPIOListHead, %struct.NamedClockListHead, %struct.BusStateHead, i32, i32, i32, %struct.ResettableState, ptr, %struct.MemReentrancyGuard }
%struct.Object = type { ptr, ptr, ptr, i32, ptr }
%struct.NamedGPIOListHead = type { ptr }
%struct.NamedClockListHead = type { ptr }
%struct.BusStateHead = type { ptr }
%struct.ResettableState = type { i32, i8, i8 }
%struct.MemReentrancyGuard = type { i8 }
%struct.anon = type { i64, ptr }
%struct.MemoryRegion = type { %struct.Object, i8, i8, i8, i8, i8, i8, i8, i8, i8, i8, ptr, ptr, ptr, ptr, ptr, ptr, i32, i128, i64, ptr, i64, i8, i8, i8, i8, i8, ptr, i64, i32, %union.anon, %union.anon.0, %union.anon.1, ptr, i32, ptr, ptr, i8 }
%union.anon = type { %struct.QTailQLink }
%struct.QTailQLink = type { ptr, ptr }
%union.anon.0 = type { %struct.QTailQLink }
%union.anon.1 = type { %struct.QTailQLink }

@.str = private unnamed_addr constant [20 x i8] c"riscv.aclint.mtimer\00", align 1
@.str.1 = private unnamed_addr constant [31 x i8] c"../qemu/hw/intc/riscv_aclint.c\00", align 1
@.str.15 = private unnamed_addr constant [15 x i8] c"sys-bus-device\00", align 1
@.str.16 = private unnamed_addr constant [98 x i8] c"/home/dtcxzyw/WorkSpace/Projects/compilers/llvm-opt-benchmark/bench/qemu/qemu/include/hw/sysbus.h\00", align 1
@__func__.SYS_BUS_DEVICE = private unnamed_addr constant [15 x i8] c"SYS_BUS_DEVICE\00", align 1
@.str.17 = private unnamed_addr constant [10 x i8] c"riscv-cpu\00", align 1
@.str.18 = private unnamed_addr constant [101 x i8] c"/home/dtcxzyw/WorkSpace/Projects/compilers/llvm-opt-benchmark/bench/qemu/qemu/target/riscv/cpu-qom.h\00", align 1
@__func__.RISCV_CPU = private unnamed_addr constant [10 x i8] c"RISCV_CPU\00", align 1
@__func__.riscv_aclint_mtimer_realize = private unnamed_addr constant [28 x i8] c"riscv_aclint_mtimer_realize\00", align 1
@riscv_aclint_mtimer_ops = internal constant %struct.MemoryRegionOps { ptr @riscv_aclint_mtimer_read, ptr @riscv_aclint_mtimer_write, ptr null, ptr null, i32 2, %struct.anon.11 { i32 4, i32 8, i8 0, ptr null }, %struct.anon.12 { i32 4, i32 8, i8 0 } }, align 8
@.str.21 = private unnamed_addr constant [21 x i8] c"MTIP already claimed\00", align 1

; Function Attrs: nounwind sspstrong uwtable
define internal ptr @RISCV_CPU(ptr noundef %obj) #0 {
entry:
  %obj.addr = alloca ptr, align 8
  store ptr %obj, ptr %obj.addr, align 8
  %0 = load ptr, ptr %obj.addr, align 8
  %call = call ptr @object_dynamic_cast_assert(ptr noundef %0, ptr noundef @.str.17, ptr noundef @.str.18, i32 noundef 46, ptr noundef @__func__.RISCV_CPU)
  ret ptr %call
}

; Function Attrs: nounwind sspstrong uwtable
define internal ptr @SYS_BUS_DEVICE(ptr noundef %obj) #0 {
entry:
  %obj.addr = alloca ptr, align 8
  store ptr %obj, ptr %obj.addr, align 8
  %0 = load ptr, ptr %obj.addr, align 8
  %call = call ptr @object_dynamic_cast_assert(ptr noundef %0, ptr noundef @.str.15, ptr noundef @.str.16, i32 noundef 20, ptr noundef @__func__.SYS_BUS_DEVICE)
  ret ptr %call
}

; Function Attrs: nounwind sspstrong uwtable
define internal void @riscv_aclint_mtimer_realize(ptr noundef %dev, ptr noundef %errp) #0 {
entry:
  %dev.addr = alloca ptr, align 8
  %errp.addr = alloca ptr, align 8
  %s = alloca ptr, align 8
  %i = alloca i32, align 4
  %cpu = alloca ptr, align 8
  store ptr %dev, ptr %dev.addr, align 8
  store ptr %errp, ptr %errp.addr, align 8
  %0 = load ptr, ptr %dev.addr, align 8
  %call = call ptr @object_dynamic_cast_assert(ptr noundef %0, ptr noundef @.str, ptr noundef @.str.1, i32 noundef 282, ptr noundef @__func__.riscv_aclint_mtimer_realize)
  store ptr %call, ptr %s, align 8
  %1 = load ptr, ptr %s, align 8
  %mmio = getelementptr inbounds %struct.RISCVAclintMTimerState, ptr %1, i32 0, i32 4
  %2 = load ptr, ptr %dev.addr, align 8
  %3 = load ptr, ptr %s, align 8
  %4 = load ptr, ptr %s, align 8
  %aperture_size = getelementptr inbounds %struct.RISCVAclintMTimerState, ptr %4, i32 0, i32 9
  %5 = load i32, ptr %aperture_size, align 16
  %conv = zext i32 %5 to i64
  call void @memory_region_init_io(ptr noundef %mmio, ptr noundef %2, ptr noundef @riscv_aclint_mtimer_ops, ptr noundef %3, ptr noundef @.str, i64 noundef %conv)
  %6 = load ptr, ptr %dev.addr, align 8
  %call1 = call ptr @SYS_BUS_DEVICE(ptr noundef %6)
  %7 = load ptr, ptr %s, align 8
  %mmio2 = getelementptr inbounds %struct.RISCVAclintMTimerState, ptr %7, i32 0, i32 4
  call void @sysbus_init_mmio(ptr noundef %call1, ptr noundef %mmio2)
  %8 = load ptr, ptr %s, align 8
  %num_harts = getelementptr inbounds %struct.RISCVAclintMTimerState, ptr %8, i32 0, i32 6
  %9 = load i32, ptr %num_harts, align 4
  %conv3 = zext i32 %9 to i64
  %call4 = call noalias ptr @g_malloc_n(i64 noundef %conv3, i64 noundef 8) #5
  %10 = load ptr, ptr %s, align 8
  %timer_irqs = getelementptr inbounds %struct.RISCVAclintMTimerState, ptr %10, i32 0, i32 11
  store ptr %call4, ptr %timer_irqs, align 8
  %11 = load ptr, ptr %dev.addr, align 8
  %12 = load ptr, ptr %s, align 8
  %timer_irqs5 = getelementptr inbounds %struct.RISCVAclintMTimerState, ptr %12, i32 0, i32 11
  %13 = load ptr, ptr %timer_irqs5, align 8
  %14 = load ptr, ptr %s, align 8
  %num_harts6 = getelementptr inbounds %struct.RISCVAclintMTimerState, ptr %14, i32 0, i32 6
  %15 = load i32, ptr %num_harts6, align 4
  call void @qdev_init_gpio_out(ptr noundef %11, ptr noundef %13, i32 noundef %15)
  %16 = load ptr, ptr %s, align 8
  %num_harts7 = getelementptr inbounds %struct.RISCVAclintMTimerState, ptr %16, i32 0, i32 6
  %17 = load i32, ptr %num_harts7, align 4
  %conv8 = zext i32 %17 to i64
  %call9 = call noalias ptr @g_malloc0_n(i64 noundef %conv8, i64 noundef 8) #5
  %18 = load ptr, ptr %s, align 8
  %timers = getelementptr inbounds %struct.RISCVAclintMTimerState, ptr %18, i32 0, i32 3
  store ptr %call9, ptr %timers, align 16
  %19 = load ptr, ptr %s, align 8
  %num_harts10 = getelementptr inbounds %struct.RISCVAclintMTimerState, ptr %19, i32 0, i32 6
  %20 = load i32, ptr %num_harts10, align 4
  %conv11 = zext i32 %20 to i64
  %call12 = call noalias ptr @g_malloc0_n(i64 noundef %conv11, i64 noundef 8) #5
  %21 = load ptr, ptr %s, align 8
  %timecmp = getelementptr inbounds %struct.RISCVAclintMTimerState, ptr %21, i32 0, i32 2
  store ptr %call12, ptr %timecmp, align 8
  store i32 0, ptr %i, align 4
  br label %for.cond

for.cond:                                         ; preds = %for.inc, %entry
  %22 = load i32, ptr %i, align 4
  %23 = load ptr, ptr %s, align 8
  %num_harts13 = getelementptr inbounds %struct.RISCVAclintMTimerState, ptr %23, i32 0, i32 6
  %24 = load i32, ptr %num_harts13, align 4
  %cmp = icmp ult i32 %22, %24
  br i1 %cmp, label %for.body, label %for.end

for.body:                                         ; preds = %for.cond
  %25 = load ptr, ptr %s, align 8
  %hartid_base = getelementptr inbounds %struct.RISCVAclintMTimerState, ptr %25, i32 0, i32 5
  %26 = load i32, ptr %hartid_base, align 16
  %27 = load i32, ptr %i, align 4
  %add = add i32 %26, %27
  %conv15 = zext i32 %add to i64
  %call16 = call ptr @cpu_by_arch_id(i64 noundef %conv15)
  %call17 = call ptr @RISCV_CPU(ptr noundef %call16)
  store ptr %call17, ptr %cpu, align 8
  %28 = load ptr, ptr %cpu, align 8
  %call18 = call i32 @riscv_cpu_claim_interrupts(ptr noundef %28, i64 noundef 128)
  %cmp19 = icmp slt i32 %call18, 0
  br i1 %cmp19, label %if.then, label %if.end

if.then:                                          ; preds = %for.body
  call void (ptr, ...) @error_report(ptr noundef @.str.21)
  call void @exit(i32 noundef 1) #4
  unreachable

if.end:                                           ; preds = %for.body
  br label %for.inc

for.inc:                                          ; preds = %if.end
  %29 = load i32, ptr %i, align 4
  %inc = add i32 %29, 1
  store i32 %inc, ptr %i, align 4
  br label %for.cond, !llvm.loop !8

for.end:                                          ; preds = %for.cond
  ret void
}