; Function Attrs: nounwind sspstrong uwtable
define internal void @riscv_aclint_mtimer_realize(ptr noundef %dev, ptr readnone captures(none) %errp) #0 {
entry:
  %call = tail call ptr @object_dynamic_cast_assert(ptr noundef %dev, ptr noundef nonnull @.str, ptr noundef nonnull @.str.1, i32 noundef 282, ptr noundef nonnull @__func__.riscv_aclint_mtimer_realize) #6
  %mmio = getelementptr inbounds nuw i8, ptr %call, i64 848
  %aperture_size = getelementptr inbounds nuw i8, ptr %call, i64 1136
  %0 = load i32, ptr %aperture_size, align 16
  %conv = zext i32 %0 to i64
  tail call void @memory_region_init_io(ptr noundef nonnull %mmio, ptr noundef %dev, ptr noundef nonnull @riscv_aclint_mtimer_ops, ptr noundef %call, ptr noundef nonnull @.str, i64 noundef %conv) #6
  %call.i = tail call ptr @object_dynamic_cast_assert(ptr noundef %dev, ptr noundef nonnull @.str.15, ptr noundef nonnull @.str.16, i32 noundef 20, ptr noundef nonnull @__func__.SYS_BUS_DEVICE) #6
  tail call void @sysbus_init_mmio(ptr noundef %call.i, ptr noundef nonnull %mmio) #6
  %num_harts = getelementptr inbounds nuw i8, ptr %call, i64 1124
  %1 = load i32, ptr %num_harts, align 4
  %conv3 = zext i32 %1 to i64
  %call4 = tail call noalias ptr @g_malloc_n(i64 noundef %conv3, i64 noundef 8) #8
  %timer_irqs = getelementptr inbounds nuw i8, ptr %call, i64 1144
  store ptr %call4, ptr %timer_irqs, align 8
  %2 = load i32, ptr %num_harts, align 4
  tail call void @qdev_init_gpio_out(ptr noundef %dev, ptr noundef %call4, i32 noundef %2) #6
  %3 = load i32, ptr %num_harts, align 4
  %conv8 = zext i32 %3 to i64
  %call9 = tail call noalias ptr @g_malloc0_n(i64 noundef %conv8, i64 noundef 8) #8
  %timers = getelementptr inbounds nuw i8, ptr %call, i64 832
  store ptr %call9, ptr %timers, align 16
  %4 = load i32, ptr %num_harts, align 4
  %conv11 = zext i32 %4 to i64
  %call12 = tail call noalias ptr @g_malloc0_n(i64 noundef %conv11, i64 noundef 8) #8
  %timecmp = getelementptr inbounds nuw i8, ptr %call, i64 824
  store ptr %call12, ptr %timecmp, align 8
  %5 = load i32, ptr %num_harts, align 4
  %cmp20.not = icmp eq i32 %5, 0
  br i1 %cmp20.not, label %for.end, label %for.body.lr.ph

for.body.lr.ph:                                   ; preds = %entry
  %hartid_base = getelementptr inbounds nuw i8, ptr %call, i64 1120
  br label %for.body

for.cond:                                         ; preds = %for.body
  %inc = add nuw i32 %i.021, 1
  %6 = load i32, ptr %num_harts, align 4
  %cmp = icmp ult i32 %inc, %6
  br i1 %cmp, label %for.body, label %for.end, !llvm.loop !8

for.body:                                         ; preds = %for.body.lr.ph, %for.cond
  %i.021 = phi i32 [ 0, %for.body.lr.ph ], [ %inc, %for.cond ]
  %7 = load i32, ptr %hartid_base, align 16
  %add = add i32 %7, %i.021
  %conv15 = zext i32 %add to i64
  %call16 = tail call ptr @cpu_by_arch_id(i64 noundef %conv15) #6
  %call.i19 = tail call ptr @object_dynamic_cast_assert(ptr noundef %call16, ptr noundef nonnull @.str.17, ptr noundef nonnull @.str.18, i32 noundef 46, ptr noundef nonnull @__func__.RISCV_CPU) #6
  %call18 = tail call i32 @riscv_cpu_claim_interrupts(ptr noundef %call.i19, i64 noundef 128) #6
  %cmp19 = icmp slt i32 %call18, 0
  br i1 %cmp19, label %if.then, label %for.cond

if.then:                                          ; preds = %for.body
  tail call void (ptr, ...) @error_report(ptr noundef nonnull @.str.21) #6
  tail call void @exit(i32 noundef 1) #9
  unreachable

for.end:                                          ; preds = %for.cond, %entry
  ret void
}